target datalayout = "e-m:e-p270:32:32-p271:32:32-p272:64:64-i64:64-i128:128-f80:128-n8:16:32:64-S128"
target triple = "x86_64-pc-linux-gnu"

%struct.FmgrInfo = type { ptr, i32, i16, i8, i8, i8, ptr, ptr, ptr }
%struct.ItemPointerData = type { %struct.BlockIdData, i16 }
%struct.BlockIdData = type { i16, i16 }
%struct.TupleTableSlot = type { i32, i16, i16, ptr, ptr, ptr, ptr, ptr, %struct.ItemPointerData, i32 }
%struct.TupleDescData = type { i32, i32, i32, i32, ptr, [0 x %struct.CompactAttribute] }
%struct.CompactAttribute = type { i32, i16, i8, i8, i8, i8, i8, i8, i8 }
%struct.nameData = type { [64 x i8] }
%struct.FormData_pg_attribute = type { i32, %struct.nameData, i32, i16, i16, i32, i16, i8, i8, i8, i8, i8, i8, i8, i8, i8, i8, i8, i16, i32 }
%struct.TypeCacheEntry = type { i32, i32, i16, i8, i8, i8, i8, i32, i32, i32, i32, i32, i32, i32, i32, i32, i32, i32, i32, i32, i32, %struct.FmgrInfo, %struct.FmgrInfo, %struct.FmgrInfo, %struct.FmgrInfo, ptr, i64, ptr, i32, i32, %struct.FmgrInfo, %struct.FmgrInfo, %struct.FmgrInfo, ptr, i32, i32, ptr, i32, ptr, ptr }

@.str.2 = private unnamed_addr constant [18 x i8] c"execReplication.c\00", align 1
@.str.17 = private unnamed_addr constant [52 x i8] c"could not identify an equality operator for type %s\00", align 1
@__func__.tuples_equal = private unnamed_addr constant [13 x i8] c"tuples_equal\00", align 1

; Function Attrs: inlinehint nounwind uwtable
define internal void @slot_getsomeattrs(ptr noundef %0, i32 noundef %1) #3 {
  %3 = alloca ptr, align 8
  %4 = alloca i32, align 4
  store ptr %0, ptr %3, align 8
  store i32 %1, ptr %4, align 4
  %5 = load ptr, ptr %3, align 8
  %6 = getelementptr inbounds nuw %struct.TupleTableSlot, ptr %5, i32 0, i32 2
  %7 = load i16, ptr %6, align 2
  %8 = sext i16 %7 to i32
  %9 = load i32, ptr %4, align 4
  %10 = icmp slt i32 %8, %9
  br i1 %10, label %11, label %14

11:                                               ; preds = %2
  %12 = load ptr, ptr %3, align 8
  %13 = load i32, ptr %4, align 4
  call void @slot_getsomeattrs_int(ptr noundef %12, i32 noundef %13)
  br label %14

14:                                               ; preds = %11, %2
  ret void
}

; Function Attrs: inlinehint nounwind uwtable
define internal zeroext i1 @DatumGetBool(i64 noundef %0) #3 {
  %2 = alloca i64, align 8
  store i64 %0, ptr %2, align 8
  %3 = load i64, ptr %2, align 8
  %4 = icmp ne i64 %3, 0
  ret i1 %4
}

; Function Attrs: inlinehint nounwind uwtable
define internal ptr @TupleDescAttr(ptr noundef %0, i32 noundef %1) #3 {
  %3 = alloca ptr, align 8
  %4 = alloca i32, align 4
  %5 = alloca ptr, align 8
  store ptr %0, ptr %3, align 8
  store i32 %1, ptr %4, align 4
  call void @llvm.lifetime.start.p0(i64 8, ptr %5) #7
  %6 = load ptr, ptr %3, align 8
  %7 = load ptr, ptr %3, align 8
  %8 = getelementptr inbounds nuw %struct.TupleDescData, ptr %7, i32 0, i32 0
  %9 = load i32, ptr %8, align 8
  %10 = sext i32 %9 to i64
  %11 = mul i64 %10, 16
  %12 = add i64 24, %11
  %13 = getelementptr inbounds nuw i8, ptr %6, i64 %12
  store ptr %13, ptr %5, align 8
  %14 = load ptr, ptr %5, align 8
  %15 = load i32, ptr %4, align 4
  %16 = sext i32 %15 to i64
  %17 = getelementptr inbounds %struct.FormData_pg_attribute, ptr %14, i64 %16
  call void @llvm.lifetime.end.p0(i64 8, ptr %5) #7
  ret ptr %17
}

; Function Attrs: inlinehint nounwind uwtable
define internal void @slot_getallattrs(ptr noundef %0) #3 {
  %2 = alloca ptr, align 8
  store ptr %0, ptr %2, align 8
  %3 = load ptr, ptr %2, align 8
  %4 = load ptr, ptr %2, align 8
  %5 = getelementptr inbounds nuw %struct.TupleTableSlot, ptr %4, i32 0, i32 4
  %6 = load ptr, ptr %5, align 8
  %7 = getelementptr inbounds nuw %struct.TupleDescData, ptr %6, i32 0, i32 0
  %8 = load i32, ptr %7, align 8
  call void @slot_getsomeattrs(ptr noundef %3, i32 noundef %8)
  ret void
}

; Function Attrs: nounwind uwtable
define internal zeroext i1 @tuples_equal(ptr noundef %0, ptr noundef %1, ptr noundef %2) #0 {
  %4 = alloca i1, align 1
  %5 = alloca ptr, align 8
  %6 = alloca ptr, align 8
  %7 = alloca ptr, align 8
  %8 = alloca i32, align 4
  %9 = alloca ptr, align 8
  %10 = alloca ptr, align 8
  %11 = alloca i32, align 4
  store ptr %0, ptr %5, align 8
  store ptr %1, ptr %6, align 8
  store ptr %2, ptr %7, align 8
  call void @llvm.lifetime.start.p0(i64 4, ptr %8) #7
  %12 = load ptr, ptr %5, align 8
  call void @slot_getallattrs(ptr noundef %12)
  %13 = load ptr, ptr %6, align 8
  call void @slot_getallattrs(ptr noundef %13)
  store i32 0, ptr %8, align 4
  br label %14

14:                                               ; preds = %146, %3
  %15 = load i32, ptr %8, align 4
  %16 = load ptr, ptr %5, align 8
  %17 = getelementptr inbounds nuw %struct.TupleTableSlot, ptr %16, i32 0, i32 4
  %18 = load ptr, ptr %17, align 8
  %19 = getelementptr inbounds nuw %struct.TupleDescData, ptr %18, i32 0, i32 0
  %20 = load i32, ptr %19, align 8
  %21 = icmp slt i32 %15, %20
  br i1 %21, label %22, label %149

22:                                               ; preds = %14
  call void @llvm.lifetime.start.p0(i64 8, ptr %9) #7
  call void @llvm.lifetime.start.p0(i64 8, ptr %10) #7
  %23 = load ptr, ptr %5, align 8
  %24 = getelementptr inbounds nuw %struct.TupleTableSlot, ptr %23, i32 0, i32 4
  %25 = load ptr, ptr %24, align 8
  %26 = load i32, ptr %8, align 4
  %27 = call ptr @TupleDescAttr(ptr noundef %25, i32 noundef %26)
  store ptr %27, ptr %9, align 8
  %28 = load ptr, ptr %9, align 8
  %29 = getelementptr inbounds nuw %struct.FormData_pg_attribute, ptr %28, i32 0, i32 16
  %30 = load i8, ptr %29, align 1, !range !4, !noundef !5
  %31 = trunc i8 %30 to i1
  br i1 %31, label %38, label %32

32:                                               ; preds = %22
  %33 = load ptr, ptr %9, align 8
  %34 = getelementptr inbounds nuw %struct.FormData_pg_attribute, ptr %33, i32 0, i32 15
  %35 = load i8, ptr %34, align 2
  %36 = sext i8 %35 to i32
  %37 = icmp ne i32 %36, 0
  br i1 %37, label %38, label %39

38:                                               ; preds = %32, %22
  store i32 4, ptr %11, align 4
  br label %143

39:                                               ; preds = %32
  %40 = load ptr, ptr %5, align 8
  %41 = getelementptr inbounds nuw %struct.TupleTableSlot, ptr %40, i32 0, i32 6
  %42 = load ptr, ptr %41, align 8
  %43 = load i32, ptr %8, align 4
  %44 = sext i32 %43 to i64
  %45 = getelementptr inbounds i8, ptr %42, i64 %44
  %46 = load i8, ptr %45, align 1, !range !4, !noundef !5
  %47 = trunc i8 %46 to i1
  %48 = zext i1 %47 to i32
  %49 = load ptr, ptr %6, align 8
  %50 = getelementptr inbounds nuw %struct.TupleTableSlot, ptr %49, i32 0, i32 6
  %51 = load ptr, ptr %50, align 8
  %52 = load i32, ptr %8, align 4
  %53 = sext i32 %52 to i64
  %54 = getelementptr inbounds i8, ptr %51, i64 %53
  %55 = load i8, ptr %54, align 1, !range !4, !noundef !5
  %56 = trunc i8 %55 to i1
  %57 = zext i1 %56 to i32
  %58 = icmp ne i32 %48, %57
  br i1 %58, label %59, label %60

59:                                               ; preds = %39
  store i1 false, ptr %4, align 1
  store i32 1, ptr %11, align 4
  br label %143

60:                                               ; preds = %39
  %61 = load ptr, ptr %5, align 8
  %62 = getelementptr inbounds nuw %struct.TupleTableSlot, ptr %61, i32 0, i32 6
  %63 = load ptr, ptr %62, align 8
  %64 = load i32, ptr %8, align 4
  %65 = sext i32 %64 to i64
  %66 = getelementptr inbounds i8, ptr %63, i64 %65
  %67 = load i8, ptr %66, align 1, !range !4, !noundef !5
  %68 = trunc i8 %67 to i1
  br i1 %68, label %78, label %69

69:                                               ; preds = %60
  %70 = load ptr, ptr %6, align 8
  %71 = getelementptr inbounds nuw %struct.TupleTableSlot, ptr %70, i32 0, i32 6
  %72 = load ptr, ptr %71, align 8
  %73 = load i32, ptr %8, align 4
  %74 = sext i32 %73 to i64
  %75 = getelementptr inbounds i8, ptr %72, i64 %74
  %76 = load i8, ptr %75, align 1, !range !4, !noundef !5
  %77 = trunc i8 %76 to i1
  br i1 %77, label %78, label %79

78:                                               ; preds = %69, %60
  store i32 4, ptr %11, align 4
  br label %143

79:                                               ; preds = %69
  %80 = load ptr, ptr %7, align 8
  %81 = load i32, ptr %8, align 4
  %82 = sext i32 %81 to i64
  %83 = getelementptr inbounds ptr, ptr %80, i64 %82
  %84 = load ptr, ptr %83, align 8
  store ptr %84, ptr %10, align 8
  %85 = load ptr, ptr %10, align 8
  %86 = icmp eq ptr %85, null
  br i1 %86, label %87, label %119

87:                                               ; preds = %79
  %88 = load ptr, ptr %9, align 8
  %89 = getelementptr inbounds nuw %struct.FormData_pg_attribute, ptr %88, i32 0, i32 2
  %90 = load i32, ptr %89, align 4
  %91 = call ptr @lookup_type_cache(i32 noundef %90, i32 noundef 32)
  store ptr %91, ptr %10, align 8
  %92 = load ptr, ptr %10, align 8
  %93 = getelementptr inbounds nuw %struct.TypeCacheEntry, ptr %92, i32 0, i32 21
  %94 = getelementptr inbounds nuw %struct.FmgrInfo, ptr %93, i32 0, i32 1
  %95 = load i32, ptr %94, align 8
  %96 = icmp ne i32 %95, 0
  br i1 %96, label %113, label %97

97:                                               ; preds = %87
  br label %98

98:                                               ; preds = %97
  br i1 true, label %99, label %101

99:                                               ; preds = %98
  %100 = call zeroext i1 @errstart_cold(i32 noundef 21, ptr noundef null) #8
  br i1 %100, label %103, label %110

101:                                              ; preds = %98
  %102 = call zeroext i1 @errstart(i32 noundef 21, ptr noundef null)
  br i1 %102, label %103, label %110

103:                                              ; preds = %101, %99
  %104 = call i32 @errcode(i32 noundef 52461700)
  %105 = load ptr, ptr %9, align 8
  %106 = getelementptr inbounds nuw %struct.FormData_pg_attribute, ptr %105, i32 0, i32 2
  %107 = load i32, ptr %106, align 4
  %108 = call ptr @format_type_be(i32 noundef %107)
  %109 = call i32 (ptr, ...) @errmsg(ptr noundef @.str.17, ptr noundef %108)
  call void @errfinish(ptr noundef @.str.2, i32 noundef 330, ptr noundef @__func__.tuples_equal)
  br label %110

110:                                              ; preds = %103, %101, %99
  unreachable

111:                                              ; No predecessors!
  br label %112

112:                                              ; preds = %111
  br label %113

113:                                              ; preds = %112, %87
  %114 = load ptr, ptr %10, align 8
  %115 = load ptr, ptr %7, align 8
  %116 = load i32, ptr %8, align 4
  %117 = sext i32 %116 to i64
  %118 = getelementptr inbounds ptr, ptr %115, i64 %117
  store ptr %114, ptr %118, align 8
  br label %119

119:                                              ; preds = %113, %79
  %120 = load ptr, ptr %10, align 8
  %121 = getelementptr inbounds nuw %struct.TypeCacheEntry, ptr %120, i32 0, i32 21
  %122 = load ptr, ptr %9, align 8
  %123 = getelementptr inbounds nuw %struct.FormData_pg_attribute, ptr %122, i32 0, i32 19
  %124 = load i32, ptr %123, align 4
  %125 = load ptr, ptr %5, align 8
  %126 = getelementptr inbounds nuw %struct.TupleTableSlot, ptr %125, i32 0, i32 5
  %127 = load ptr, ptr %126, align 8
  %128 = load i32, ptr %8, align 4
  %129 = sext i32 %128 to i64
  %130 = getelementptr inbounds i64, ptr %127, i64 %129
  %131 = load i64, ptr %130, align 8
  %132 = load ptr, ptr %6, align 8
  %133 = getelementptr inbounds nuw %struct.TupleTableSlot, ptr %132, i32 0, i32 5
  %134 = load ptr, ptr %133, align 8
  %135 = load i32, ptr %8, align 4
  %136 = sext i32 %135 to i64
  %137 = getelementptr inbounds i64, ptr %134, i64 %136
  %138 = load i64, ptr %137, align 8
  %139 = call i64 @FunctionCall2Coll(ptr noundef %121, i32 noundef %124, i64 noundef %131, i64 noundef %138)
  %140 = call zeroext i1 @DatumGetBool(i64 noundef %139)
  br i1 %140, label %142, label %141

141:                                              ; preds = %119
  store i1 false, ptr %4, align 1
  store i32 1, ptr %11, align 4
  br label %143

142:                                              ; preds = %119
  store i32 0, ptr %11, align 4
  br label %143

143:                                              ; preds = %142, %141, %78, %59, %38
  call void @llvm.lifetime.end.p0(i64 8, ptr %10) #7
  call void @llvm.lifetime.end.p0(i64 8, ptr %9) #7
  %144 = load i32, ptr %11, align 4
  switch i32 %144, label %150 [
    i32 0, label %145
    i32 4, label %146
  ]

145:                                              ; preds = %143
  br label %146

146:                                              ; preds = %145, %143
  %147 = load i32, ptr %8, align 4
  %148 = add i32 %147, 1
  store i32 %148, ptr %8, align 4
  br label %14, !llvm.loop !9

149:                                              ; preds = %14
  store i1 true, ptr %4, align 1
  store i32 1, ptr %11, align 4
  br label %150

150:                                              ; preds = %149, %143
  call void @llvm.lifetime.end.p0(i64 4, ptr %8) #7
  %151 = load i1, ptr %4, align 1
  ret i1 %151
}