; Function Attrs: nounwind uwtable
define internal fastcc noundef zeroext i1 @tuples_equal(ptr noundef %0, ptr noundef %1, ptr noundef captures(none) %2) unnamed_addr #0 {
  %4 = getelementptr inbounds nuw i8, ptr %0, i64 16
  %5 = load ptr, ptr %4, align 8
  %6 = load i32, ptr %5, align 8
  %7 = getelementptr inbounds nuw i8, ptr %0, i64 6
  %8 = load i16, ptr %7, align 2
  %9 = sext i16 %8 to i32
  %10 = icmp sgt i32 %6, %9
  br i1 %10, label %11, label %slot_getallattrs.exit

11:                                               ; preds = %3
  tail call void @slot_getsomeattrs_int(ptr noundef nonnull %0, i32 noundef %6) #5
  br label %slot_getallattrs.exit

slot_getallattrs.exit:                            ; preds = %3, %11
  %12 = getelementptr inbounds nuw i8, ptr %1, i64 16
  %13 = load ptr, ptr %12, align 8
  %14 = load i32, ptr %13, align 8
  %15 = getelementptr inbounds nuw i8, ptr %1, i64 6
  %16 = load i16, ptr %15, align 2
  %17 = sext i16 %16 to i32
  %18 = icmp sgt i32 %14, %17
  br i1 %18, label %19, label %slot_getallattrs.exit39

19:                                               ; preds = %slot_getallattrs.exit
  tail call void @slot_getsomeattrs_int(ptr noundef nonnull %1, i32 noundef %14) #5
  br label %slot_getallattrs.exit39

slot_getallattrs.exit39:                          ; preds = %slot_getallattrs.exit, %19
  %20 = load ptr, ptr %4, align 8
  %21 = load i32, ptr %20, align 8
  %22 = icmp slt i32 %21, 1
  br i1 %22, label %._crit_edge, label %.lr.ph

.lr.ph:                                           ; preds = %slot_getallattrs.exit39
  %23 = getelementptr inbounds nuw i8, ptr %0, i64 32
  %24 = getelementptr inbounds nuw i8, ptr %1, i64 32
  %25 = getelementptr inbounds nuw i8, ptr %0, i64 24
  %26 = getelementptr inbounds nuw i8, ptr %1, i64 24
  br label %27

27:                                               ; preds = %.lr.ph, %select.unfold
  %28 = phi i32 [ %21, %.lr.ph ], [ %79, %select.unfold ]
  %29 = phi ptr [ %20, %.lr.ph ], [ %80, %select.unfold ]
  %indvars.iv = phi i64 [ 0, %.lr.ph ], [ %indvars.iv.next, %select.unfold ]
  %30 = sext i32 %28 to i64
  %31 = shl nsw i64 %30, 4
  %32 = getelementptr i8, ptr %29, i64 %31
  %33 = getelementptr i8, ptr %32, i64 24
  %34 = getelementptr inbounds nuw %struct.FormData_pg_attribute, ptr %33, i64 %indvars.iv
  %35 = getelementptr inbounds nuw i8, ptr %34, i64 91
  %36 = load i8, ptr %35, align 1, !range !4, !noundef !5
  %37 = trunc nuw i8 %36 to i1
  br i1 %37, label %select.unfold, label %38

38:                                               ; preds = %27
  %39 = getelementptr inbounds nuw i8, ptr %34, i64 90
  %40 = load i8, ptr %39, align 2
  %.not = icmp eq i8 %40, 0
  br i1 %.not, label %41, label %select.unfold

41:                                               ; preds = %38
  %42 = load ptr, ptr %23, align 8
  %43 = getelementptr inbounds nuw i8, ptr %42, i64 %indvars.iv
  %44 = load i8, ptr %43, align 1, !range !4, !noundef !5
  %45 = load ptr, ptr %24, align 8
  %46 = getelementptr inbounds nuw i8, ptr %45, i64 %indvars.iv
  %47 = load i8, ptr %46, align 1, !range !4, !noundef !5
  %.not37 = icmp eq i8 %44, %47
  br i1 %.not37, label %48, label %._crit_edge

48:                                               ; preds = %41
  %49 = trunc nuw i8 %44 to i1
  br i1 %49, label %select.unfold, label %50

50:                                               ; preds = %48
  %51 = getelementptr inbounds nuw ptr, ptr %2, i64 %indvars.iv
  %52 = load ptr, ptr %51, align 8
  %53 = icmp eq ptr %52, null
  br i1 %53, label %54, label %68

54:                                               ; preds = %50
  %55 = getelementptr inbounds nuw i8, ptr %34, i64 68
  %56 = load i32, ptr %55, align 4
  %57 = tail call ptr @lookup_type_cache(i32 noundef %56, i32 noundef 32) #5
  %58 = getelementptr inbounds nuw i8, ptr %57, i64 80
  %59 = load i32, ptr %58, align 8
  %.not38 = icmp eq i32 %59, 0
  br i1 %.not38, label %60, label %67

60:                                               ; preds = %54
  %61 = getelementptr inbounds nuw i8, ptr %34, i64 68
  %62 = tail call zeroext i1 @errstart_cold(i32 noundef 21, ptr noundef null) #6
  tail call void @llvm.assume(i1 %62)
  %63 = tail call i32 @errcode(i32 noundef 52461700) #5
  %64 = load i32, ptr %61, align 4
  %65 = tail call ptr @format_type_be(i32 noundef %64) #5
  %66 = tail call i32 (ptr, ...) @errmsg(ptr noundef nonnull @.str.17, ptr noundef %65) #5
  tail call void @errfinish(ptr noundef nonnull @.str.2, i32 noundef 330, ptr noundef nonnull @__func__.tuples_equal) #5
  unreachable

67:                                               ; preds = %54
  store ptr %57, ptr %51, align 8
  br label %68

68:                                               ; preds = %67, %50
  %.033 = phi ptr [ %57, %67 ], [ %52, %50 ]
  %69 = getelementptr inbounds nuw i8, ptr %.033, i64 72
  %70 = getelementptr inbounds nuw i8, ptr %34, i64 96
  %71 = load i32, ptr %70, align 4
  %72 = load ptr, ptr %25, align 8
  %73 = getelementptr inbounds nuw i64, ptr %72, i64 %indvars.iv
  %74 = load i64, ptr %73, align 8
  %75 = load ptr, ptr %26, align 8
  %76 = getelementptr inbounds nuw i64, ptr %75, i64 %indvars.iv
  %77 = load i64, ptr %76, align 8
  %78 = tail call i64 @FunctionCall2Coll(ptr noundef nonnull %69, i32 noundef %71, i64 noundef %74, i64 noundef %77) #5
  %.not41 = icmp eq i64 %78, 0
  br i1 %.not41, label %._crit_edge, label %.select.unfold_crit_edge

.select.unfold_crit_edge:                         ; preds = %68
  %.pre = load ptr, ptr %4, align 8
  %.pre53 = load i32, ptr %.pre, align 8
  %.pre54 = sext i32 %.pre53 to i64
  br label %select.unfold

select.unfold:                                    ; preds = %.select.unfold_crit_edge, %38, %27, %48
  %.pre-phi = phi i64 [ %.pre54, %.select.unfold_crit_edge ], [ %30, %38 ], [ %30, %27 ], [ %30, %48 ]
  %79 = phi i32 [ %.pre53, %.select.unfold_crit_edge ], [ %28, %38 ], [ %28, %27 ], [ %28, %48 ]
  %80 = phi ptr [ %.pre, %.select.unfold_crit_edge ], [ %29, %38 ], [ %29, %27 ], [ %29, %48 ]
  %indvars.iv.next = add nuw nsw i64 %indvars.iv, 1
  %.not50 = icmp slt i64 %indvars.iv.next, %.pre-phi
  br i1 %.not50, label %27, label %._crit_edge, !llvm.loop !9

._crit_edge:                                      ; preds = %select.unfold, %68, %41, %slot_getallattrs.exit39
  %.lcssa42 = phi i1 [ true, %slot_getallattrs.exit39 ], [ false, %41 ], [ false, %68 ], [ true, %select.unfold ]
  ret i1 %.lcssa42
}